; Function Attrs: mustprogress nounwind uwtable
define internal void @_ZN4llvh14object_deleterIN12_GLOBAL__N_117CommandLineParserEE4callEPv(ptr noundef %Ptr) #0 align 2 {
entry:
  %isnull = icmp eq ptr %Ptr, null
  br i1 %isnull, label %delete.end, label %delete.notnull

delete.notnull:                                   ; preds = %entry
  %RegisteredSubCommands.i = getelementptr inbounds i8, ptr %Ptr, i64 232
  %CurArray.i.i.i.i.i = getelementptr inbounds i8, ptr %Ptr, i64 240
  %0 = load ptr, ptr %CurArray.i.i.i.i.i, align 8
  %1 = load ptr, ptr %RegisteredSubCommands.i, align 8
  %cmp.i.i.i.i.i = icmp eq ptr %0, %1
  br i1 %cmp.i.i.i.i.i, label %_ZN4llvh11SmallPtrSetIPNS_2cl10SubCommandELj4EED2Ev.exit.i, label %if.then.i.i.i.i

if.then.i.i.i.i:                                  ; preds = %delete.notnull
  tail call void @free(ptr noundef %0) #27
  br label %_ZN4llvh11SmallPtrSetIPNS_2cl10SubCommandELj4EED2Ev.exit.i

_ZN4llvh11SmallPtrSetIPNS_2cl10SubCommandELj4EED2Ev.exit.i: ; preds = %if.then.i.i.i.i, %delete.notnull
  %RegisteredOptionCategories.i = getelementptr inbounds i8, ptr %Ptr, i64 72
  %CurArray.i.i.i.i1.i = getelementptr inbounds i8, ptr %Ptr, i64 80
  %2 = load ptr, ptr %CurArray.i.i.i.i1.i, align 8
  %3 = load ptr, ptr %RegisteredOptionCategories.i, align 8
  %cmp.i.i.i.i2.i = icmp eq ptr %2, %3
  br i1 %cmp.i.i.i.i2.i, label %_ZN4llvh11SmallPtrSetIPNS_2cl14OptionCategoryELj16EED2Ev.exit.i, label %if.then.i.i.i3.i

if.then.i.i.i3.i:                                 ; preds = %_ZN4llvh11SmallPtrSetIPNS_2cl10SubCommandELj4EED2Ev.exit.i
  tail call void @free(ptr noundef %2) #27
  br label %_ZN4llvh11SmallPtrSetIPNS_2cl14OptionCategoryELj16EED2Ev.exit.i

_ZN4llvh11SmallPtrSetIPNS_2cl14OptionCategoryELj16EED2Ev.exit.i: ; preds = %if.then.i.i.i3.i, %_ZN4llvh11SmallPtrSetIPNS_2cl10SubCommandELj4EED2Ev.exit.i
  %MoreHelp.i = getelementptr inbounds i8, ptr %Ptr, i64 48
  %4 = load ptr, ptr %MoreHelp.i, align 8
  %tobool.not.i.i.i.i = icmp eq ptr %4, null
  br i1 %tobool.not.i.i.i.i, label %_ZN12_GLOBAL__N_117CommandLineParserD2Ev.exit, label %if.then.i.i.i4.i

if.then.i.i.i4.i:                                 ; preds = %_ZN4llvh11SmallPtrSetIPNS_2cl14OptionCategoryELj16EED2Ev.exit.i
  tail call void @_ZdlPv(ptr noundef nonnull %4) #30
  br label %_ZN12_GLOBAL__N_117CommandLineParserD2Ev.exit

_ZN12_GLOBAL__N_117CommandLineParserD2Ev.exit:    ; preds = %_ZN4llvh11SmallPtrSetIPNS_2cl14OptionCategoryELj16EED2Ev.exit.i, %if.then.i.i.i4.i
  tail call void @_ZNSt7__cxx1112basic_stringIcSt11char_traitsIcESaIcEED1Ev(ptr noundef nonnull align 8 dereferenceable(32) %Ptr) #27
  tail call void @_ZdlPv(ptr noundef nonnull %Ptr) #30
  br label %delete.end

delete.end:                                       ; preds = %_ZN12_GLOBAL__N_117CommandLineParserD2Ev.exit, %entry
  ret void
}